(dp1
S'failed'
p2
(lp3
S'2'
asS'source_names'
p4
(lp5
S'.'
asS'ids'
p6
(dp7
I1
(S'/Users/sergioperezaranda/Mycodestore/api_exercise_sergioperez/tests/apiclient/scoring_tests.py'
S'tests.apiclient.scoring_tests'
p8
S'test_get_consumer_scoring_404'
p9
tp10
sI2
(S'/Users/sergioperezaranda/Mycodestore/api_exercise_sergioperez/tests/apiclient/scoring_tests.py'
g8
S'test_get_consumer_scoring_200'
p11
tp12
sI3
(S'/Users/sergioperezaranda/Mycodestore/api_exercise_sergioperez/tests/util/validations_tests.py'
S'tests.util.validations_tests'
p13
S'ValidationsTest.test_no_valid_income'
tp14
sI4
(S'/Users/sergioperezaranda/Mycodestore/api_exercise_sergioperez/tests/util/validations_tests.py'
g13
S'ValidationsTest.test_no_valid_network_locator'
tp15
sI5
(S'/Users/sergioperezaranda/Mycodestore/api_exercise_sergioperez/tests/util/validations_tests.py'
g13
S'ValidationsTest.test_no_valid_scheme'
tp16
sI6
(S'/Users/sergioperezaranda/Mycodestore/api_exercise_sergioperez/tests/util/validations_tests.py'
g13
S'ValidationsTest.test_no_valid_zipcode'
tp17
sI7
(S'/Users/sergioperezaranda/Mycodestore/api_exercise_sergioperez/tests/run_tests.py'
S'tests.run_tests'
p18
S'RunTest.test_set_defaults_when_all_arg_given'
tp19
sI8
(S'/Users/sergioperezaranda/Mycodestore/api_exercise_sergioperez/tests/run_tests.py'
g18
S'RunTest.test_set_defaults_when_no_args_given'
tp20
sI9
(S'/Users/sergioperezaranda/Mycodestore/api_exercise_sergioperez/tests/run_tests.py'
g18
S'RunTest.test_set_defaults_when_only_age_arg_given'
tp21
sI10
(S'/Users/sergioperezaranda/Mycodestore/api_exercise_sergioperez/tests/run_tests.py'
g18
S'RunTest.test_set_defaults_when_only_endpoint_arg_given'
tp22
sI11
(S'/Users/sergioperezaranda/Mycodestore/api_exercise_sergioperez/tests/run_tests.py'
g18
S'RunTest.test_set_defaults_when_only_income_arg_given'
tp23
sI12
(S'/Users/sergioperezaranda/Mycodestore/api_exercise_sergioperez/tests/run_tests.py'
g18
S'RunTest.test_set_defaults_when_only_zipcode_arg_given'
tp24
ss.